; Function Attrs: mustprogress uwtable
define hidden void @_ZN19OpenColorIO_v2_5dev8OCIOYaml5WriteERSoRKNS_6ConfigE(ptr noundef nonnull align 8 dereferenceable(8) %0, ptr noundef nonnull align 8 dereferenceable(8) %1) local_unnamed_addr #3 personality ptr @__gxx_personality_v0 {
  %3 = alloca %"class.YAML::Emitter", align 8
  call void @llvm.lifetime.start.p0(i64 72, ptr nonnull %3) #29
  call void @_ZN4YAML7EmitterC1Ev(ptr noundef nonnull align 8 dereferenceable(72) %3)
  %4 = invoke noundef zeroext i1 @_ZN4YAML7Emitter18SetDoublePrecisionEm(ptr noundef nonnull align 8 dereferenceable(72) %3, i64 noundef 15)
          to label %5 unwind label %22

5:                                                ; preds = %2
  %6 = invoke noundef zeroext i1 @_ZN4YAML7Emitter17SetFloatPrecisionEm(ptr noundef nonnull align 8 dereferenceable(72) %3, i64 noundef 7)
          to label %7 unwind label %22

7:                                                ; preds = %5
  invoke fastcc void @_ZN19OpenColorIO_v2_5dev12_GLOBAL__N_14saveERN4YAML7EmitterERKNS_6ConfigE(ptr noundef nonnull align 8 dereferenceable(72) %3, ptr noundef nonnull align 8 dereferenceable(8) %1)
          to label %8 unwind label %22

8:                                                ; preds = %7
  %9 = invoke noundef ptr @_ZNK4YAML7Emitter5c_strEv(ptr noundef nonnull align 8 dereferenceable(72) %3)
          to label %10 unwind label %22

10:                                               ; preds = %8
  %.not.i = icmp eq ptr %9, null
  br i1 %.not.i, label %11, label %19

11:                                               ; preds = %10
  %12 = load ptr, ptr %0, align 8, !tbaa !13
  %13 = getelementptr i8, ptr %12, i64 -24
  %14 = load i64, ptr %13, align 8
  %15 = getelementptr inbounds i8, ptr %0, i64 %14
  %16 = getelementptr inbounds nuw i8, ptr %15, i64 32
  %17 = load i32, ptr %16, align 8, !tbaa !313
  %18 = or i32 %17, 1
  invoke void @_ZNSt9basic_iosIcSt11char_traitsIcEE5clearESt12_Ios_Iostate(ptr noundef nonnull align 8 dereferenceable(264) %15, i32 noundef %18)
          to label %_ZStlsISt11char_traitsIcEERSt13basic_ostreamIcT_ES5_PKc.exit unwind label %22

19:                                               ; preds = %10
  %20 = call noundef i64 @strlen(ptr noundef nonnull dereferenceable(1) %9) #29
  %21 = invoke noundef nonnull align 8 dereferenceable(8) ptr @_ZSt16__ostream_insertIcSt11char_traitsIcEERSt13basic_ostreamIT_T0_ES6_PKS3_l(ptr noundef nonnull align 8 dereferenceable(8) %0, ptr noundef nonnull %9, i64 noundef %20)
          to label %_ZStlsISt11char_traitsIcEERSt13basic_ostreamIcT_ES5_PKc.exit unwind label %22

_ZStlsISt11char_traitsIcEERSt13basic_ostreamIcT_ES5_PKc.exit: ; preds = %11, %19
  call void @_ZN4YAML7EmitterD1Ev(ptr noundef nonnull align 8 dereferenceable(72) %3) #29
  call void @llvm.lifetime.end.p0(i64 72, ptr nonnull %3) #29
  ret void

22:                                               ; preds = %19, %11, %8, %7, %5, %2
  %23 = landingpad { ptr, i32 }
          cleanup
  call void @_ZN4YAML7EmitterD1Ev(ptr noundef nonnull align 8 dereferenceable(72) %3) #29
  call void @llvm.lifetime.end.p0(i64 72, ptr nonnull %3) #29
  resume { ptr, i32 } %23
}